(dp1
S'failed'
p2
(lp3
sS'source_names'
p4
(lp5
S'.'
asS'ids'
p6
(dp7
I1
(S'/home/beofen/FirstDraftGIS/fdgis-qgis/FirstDraftGIS/test/test_fdgis_dialog.py'
S'FirstDraftGIS.test.test_fdgis_dialog'
p8
S'FirstDraftGISDialogTest.test_dialog_cancel'
tp9
sI2
(S'/home/beofen/FirstDraftGIS/fdgis-qgis/FirstDraftGIS/test/test_fdgis_dialog.py'
g8
S'FirstDraftGISDialogTest.test_dialog_ok'
tp10
sI3
(S'/home/beofen/FirstDraftGIS/fdgis-qgis/FirstDraftGIS/test/test_init.py'
S'FirstDraftGIS.test.test_init'
S'TestInit.test_read_init'
tp11
sI4
(S'/home/beofen/FirstDraftGIS/fdgis-qgis/FirstDraftGIS/test/test_qgis_environment.py'
S'FirstDraftGIS.test.test_qgis_environment'
p12
S'QGISTest.test_projection'
tp13
sI5
(S'/home/beofen/FirstDraftGIS/fdgis-qgis/FirstDraftGIS/test/test_qgis_environment.py'
g12
S'QGISTest.test_qgis_environment'
tp14
sI6
(S'/home/beofen/FirstDraftGIS/fdgis-qgis/FirstDraftGIS/test/test_resources.py'
S'FirstDraftGIS.test.test_resources'
S'FirstDraftGISDialogTest.test_icon_png'
tp15
sI7
(S'/home/beofen/FirstDraftGIS/fdgis-qgis/FirstDraftGIS/test/test_translations.py'
S'FirstDraftGIS.test.test_translations'
S'SafeTranslationsTest.test_qgis_translations'
tp16
sI8
(S'/home/beofen/FirstDraftGIS/fdgis-qgis/FirstDraftGIS/test/test_add_via_link.py'
S'FirstDraftGIS.test.test_add_via_link'
p17
S'FirstDraftGISDialogTest.test_dialog_cancel'
tp18
sI9
(S'/home/beofen/FirstDraftGIS/fdgis-qgis/FirstDraftGIS/test/test_add_via_link.py'
g17
S'FirstDraftGISDialogTest.test_dialog_ok'
tp19
sI10
(S'/home/beofen/FirstDraftGIS/fdgis-qgis/FirstDraftGIS/test/test_dialogs.py'
S'FirstDraftGIS.test.test_dialogs'
p20
S'FirstDraftGISDialogTest.test_dialog_cancel'
tp21
sI11
(S'/home/beofen/FirstDraftGIS/fdgis-qgis/FirstDraftGIS/test/test_dialogs.py'
g20
S'TestAddText.test_dialog_cancel'
tp22
sI12
(S'/home/beofen/FirstDraftGIS/fdgis-qgis/FirstDraftGIS/test/test_dialogs.py'
g20
S'TestAddText.test_dialog_ok'
tp23
sI13
(S'/home/beofen/FirstDraftGIS/fdgis-qgis/FirstDraftGIS/test/test_dialogs.py'
g20
S'TestAddViaLink.test_dialog_cancel'
tp24
sI14
(S'/home/beofen/FirstDraftGIS/fdgis-qgis/FirstDraftGIS/test/test_dialogs.py'
g20
S'TestAddViaLink.test_dialog_ok'
tp25
sI15
(S'/home/beofen/FirstDraftGIS/fdgis-qgis/FirstDraftGIS/test/test_dialogs.py'
S'FirstDraftGIS.test.test_dialogs'
S'FirstDraftGISDialog.test_dialog_cancel'
tp26
ss.